target datalayout = "e-m:e-p270:32:32-p271:32:32-p272:64:64-i64:64-i128:128-f80:128-n8:16:32:64-S128"
target triple = "x86_64-pc-linux-gnu"

%class.expr = type { %class.ast }
%class.ast = type { i32, i32, i32, i32 }
%class.symbol = type { ptr }
%class.app = type { %class.expr, ptr, i32, %struct.app_flags, [0 x ptr] }
%struct.app_flags = type <{ i16, i8, i8 }>
%class.ast_manager = type { %class.reslimit, %class.small_object_allocator, %class.family_manager, %class.parray_manager, %class.dependency_manager, %class.parray_manager.10, %class.ptr_vector.13, i32, i8, %class.ast_table, %class.obj_map, %class.id_gen, %class.id_gen, ptr, ptr, ptr, ptr, ptr, i32, i8, [3 x i8], %class.u_map, ptr, i8, i8, ptr, %class.symbol, %class.obj_map.21, ptr }
%class.reslimit = type { %"struct.std::atomic", i8, i64, i64, %class.svector, %class.ptr_vector }
%"struct.std::atomic" = type { %"struct.std::__atomic_base" }
%"struct.std::__atomic_base" = type { i32 }
%class.svector = type { %class.vector }
%class.vector = type { ptr }
%class.ptr_vector = type { %class.vector.0 }
%class.vector.0 = type { ptr }
%class.small_object_allocator = type { [32 x ptr], [32 x ptr], i64 }
%class.family_manager = type { i32, %class.symbol_table, %class.svector.4 }
%class.symbol_table = type { %class.core_hashtable, %class.vector.1, %class.svector.2 }
%class.core_hashtable = type <{ ptr, i32, i32, i32, [4 x i8] }>
%class.vector.1 = type { ptr }
%class.svector.2 = type { %class.vector.3 }
%class.vector.3 = type { ptr }
%class.svector.4 = type { %class.vector.5 }
%class.vector.5 = type { ptr }
%class.parray_manager = type { ptr, ptr, %class.ptr_vector.6, %class.ptr_vector.6 }
%class.ptr_vector.6 = type { %class.vector.7 }
%class.vector.7 = type { ptr }
%class.dependency_manager = type { ptr, ptr, %class.ptr_vector.8 }
%class.ptr_vector.8 = type { %class.vector.9 }
%class.vector.9 = type { ptr }
%class.parray_manager.10 = type { ptr, ptr, %class.ptr_vector.11, %class.ptr_vector.11 }
%class.ptr_vector.11 = type { %class.vector.12 }
%class.vector.12 = type { ptr }
%class.ptr_vector.13 = type { %class.vector.14 }
%class.vector.14 = type { ptr }
%class.ast_table = type { %class.chashtable }
%class.chashtable = type { ptr, i32, i32, i32, i32, i32, i32, i32, ptr, ptr, ptr }
%class.obj_map = type { %class.core_hashtable.15 }
%class.core_hashtable.15 = type <{ ptr, i32, i32, i32, [4 x i8] }>
%class.id_gen = type { i32, %class.svector.17 }
%class.svector.17 = type { %class.vector.18 }
%class.vector.18 = type { ptr }
%class.u_map = type { %class.map }
%class.map = type { %class.table2map }
%class.table2map = type { %class.core_hashtable.19 }
%class.core_hashtable.19 = type <{ ptr, i32, i32, i32, [4 x i8] }>
%class.obj_map.21 = type { %class.core_hashtable.22 }
%class.core_hashtable.22 = type <{ ptr, i32, i32, i32, [4 x i8] }>
%class.obj_ref = type { ptr, ptr }
%class.decl = type { %class.ast, %class.symbol, ptr }
%class.decl_info = type <{ i32, i32, %class.vector.35, i8, [7 x i8] }>
%class.vector.35 = type { ptr }

; Function Attrs: mustprogress nounwind uwtable
define linkonce_odr hidden noundef zeroext i1 @_ZNK9decl_info10is_decl_ofEii(ptr noundef nonnull align 8 dereferenceable(17) %0, i32 noundef %1, i32 noundef %2) #6 comdat align 2 {
  %4 = alloca ptr, align 8
  %5 = alloca i32, align 4
  %6 = alloca i32, align 4
  store ptr %0, ptr %4, align 8, !tbaa !195
  store i32 %1, ptr %5, align 4, !tbaa !10
  store i32 %2, ptr %6, align 4, !tbaa !10
  %7 = load ptr, ptr %4, align 8
  %8 = getelementptr inbounds nuw %class.decl_info, ptr %7, i32 0, i32 0
  %9 = load i32, ptr %8, align 8, !tbaa !196
  %10 = load i32, ptr %5, align 4, !tbaa !10
  %11 = icmp eq i32 %9, %10
  br i1 %11, label %12, label %17

12:                                               ; preds = %3
  %13 = load i32, ptr %6, align 4, !tbaa !10
  %14 = getelementptr inbounds nuw %class.decl_info, ptr %7, i32 0, i32 1
  %15 = load i32, ptr %14, align 4, !tbaa !200
  %16 = icmp eq i32 %13, %15
  br label %17

17:                                               ; preds = %12, %3
  %18 = phi i1 [ false, %3 ], [ %16, %12 ]
  ret i1 %18
}

; Function Attrs: mustprogress uwtable
define linkonce_odr hidden noundef zeroext i1 @_ZNK4decl10is_decl_ofEii(ptr noundef nonnull align 8 dereferenceable(32) %0, i32 noundef %1, i32 noundef %2) #4 comdat align 2 {
  %4 = alloca ptr, align 8
  %5 = alloca i32, align 4
  %6 = alloca i32, align 4
  store ptr %0, ptr %4, align 8, !tbaa !190
  store i32 %1, ptr %5, align 4, !tbaa !10
  store i32 %2, ptr %6, align 4, !tbaa !10
  %7 = load ptr, ptr %4, align 8
  %8 = getelementptr inbounds nuw %class.decl, ptr %7, i32 0, i32 2
  %9 = load ptr, ptr %8, align 8, !tbaa !192
  %10 = icmp ne ptr %9, null
  br i1 %10, label %11, label %17

11:                                               ; preds = %3
  %12 = getelementptr inbounds nuw %class.decl, ptr %7, i32 0, i32 2
  %13 = load ptr, ptr %12, align 8, !tbaa !192
  %14 = load i32, ptr %5, align 4, !tbaa !10
  %15 = load i32, ptr %6, align 4, !tbaa !10
  %16 = call noundef zeroext i1 @_ZNK9decl_info10is_decl_ofEii(ptr noundef nonnull align 8 dereferenceable(17) %13, i32 noundef %14, i32 noundef %15)
  br label %17

17:                                               ; preds = %11, %3
  %18 = phi i1 [ false, %3 ], [ %16, %11 ]
  ret i1 %18
}

; Function Attrs: mustprogress uwtable
define linkonce_odr hidden noundef zeroext i1 @_ZNK3app9is_app_ofEii(ptr noundef nonnull align 8 dereferenceable(32) %0, i32 noundef %1, i32 noundef %2) #4 comdat align 2 {
  %4 = alloca ptr, align 8
  %5 = alloca i32, align 4
  %6 = alloca i32, align 4
  store ptr %0, ptr %4, align 8, !tbaa !17
  store i32 %1, ptr %5, align 4, !tbaa !10
  store i32 %2, ptr %6, align 4, !tbaa !10
  %7 = load ptr, ptr %4, align 8
  %8 = getelementptr inbounds nuw %class.app, ptr %7, i32 0, i32 1
  %9 = load ptr, ptr %8, align 8, !tbaa !167
  %10 = load i32, ptr %5, align 4, !tbaa !10
  %11 = load i32, ptr %6, align 4, !tbaa !10
  %12 = call noundef zeroext i1 @_ZNK4decl10is_decl_ofEii(ptr noundef nonnull align 8 dereferenceable(32) %9, i32 noundef %10, i32 noundef %11)
  ret i1 %12
}

; Function Attrs: mustprogress nounwind uwtable
define linkonce_odr hidden noundef i32 @_ZNK3ast8get_kindEv(ptr noundef nonnull align 4 dereferenceable(16) %0) #6 comdat align 2 {
  %2 = alloca ptr, align 8
  store ptr %0, ptr %2, align 8, !tbaa !41
  %3 = load ptr, ptr %2, align 8
  %4 = getelementptr inbounds nuw %class.ast, ptr %3, i32 0, i32 1
  %5 = load i32, ptr %4, align 4
  %6 = and i32 %5, 65535
  ret i32 %6
}

; Function Attrs: mustprogress nounwind uwtable
define linkonce_odr hidden void @_ZN3ast7inc_refEv(ptr noundef nonnull align 4 dereferenceable(16) %0) #6 comdat align 2 {
  %2 = alloca ptr, align 8
  store ptr %0, ptr %2, align 8, !tbaa !41
  %3 = load ptr, ptr %2, align 8
  %4 = getelementptr inbounds nuw %class.ast, ptr %3, i32 0, i32 2
  %5 = load i32, ptr %4, align 4, !tbaa !204
  %6 = add i32 %5, 1
  store i32 %6, ptr %4, align 4, !tbaa !204
  ret void
}

; Function Attrs: inlinehint mustprogress uwtable
define linkonce_odr hidden noundef zeroext i1 @_Z9is_app_ofPK4exprii(ptr noundef %0, i32 noundef %1, i32 noundef %2) #7 comdat {
  %4 = alloca ptr, align 8
  %5 = alloca i32, align 4
  %6 = alloca i32, align 4
  store ptr %0, ptr %4, align 8, !tbaa !15
  store i32 %1, ptr %5, align 4, !tbaa !10
  store i32 %2, ptr %6, align 4, !tbaa !10
  %7 = load ptr, ptr %4, align 8, !tbaa !15
  %8 = call noundef i32 @_ZNK3ast8get_kindEv(ptr noundef nonnull align 4 dereferenceable(16) %7)
  %9 = icmp eq i32 %8, 0
  br i1 %9, label %10, label %16

10:                                               ; preds = %3
  %11 = load ptr, ptr %4, align 8, !tbaa !15
  %12 = call noundef ptr @_Z6to_appPK3ast(ptr noundef %11)
  %13 = load i32, ptr %5, align 4, !tbaa !10
  %14 = load i32, ptr %6, align 4, !tbaa !10
  %15 = call noundef zeroext i1 @_ZNK3app9is_app_ofEii(ptr noundef nonnull align 8 dereferenceable(32) %12, i32 noundef %13, i32 noundef %14)
  br label %16

16:                                               ; preds = %10, %3
  %17 = phi i1 [ false, %3 ], [ %15, %10 ]
  ret i1 %17
}

; Function Attrs: mustprogress uwtable
define linkonce_odr hidden void @_ZN11ast_manager7inc_refEP3ast(ptr noundef nonnull align 8 dereferenceable(976) %0, ptr noundef %1) #4 comdat align 2 {
  %3 = alloca ptr, align 8
  %4 = alloca ptr, align 8
  store ptr %0, ptr %3, align 8, !tbaa !3
  store ptr %1, ptr %4, align 8, !tbaa !41
  %5 = load ptr, ptr %4, align 8, !tbaa !41
  %6 = icmp ne ptr %5, null
  br i1 %6, label %7, label %9

7:                                                ; preds = %2
  %8 = load ptr, ptr %4, align 8, !tbaa !41
  call void @_ZN3ast7inc_refEv(ptr noundef nonnull align 4 dereferenceable(16) %8)
  br label %9

9:                                                ; preds = %7, %2
  ret void
}

; Function Attrs: mustprogress nounwind uwtable
define linkonce_odr hidden noundef ptr @_ZNK3app7get_argEj(ptr noundef nonnull align 8 dereferenceable(32) %0, i32 noundef %1) #6 comdat align 2 {
  %3 = alloca ptr, align 8
  %4 = alloca i32, align 4
  store ptr %0, ptr %3, align 8, !tbaa !17
  store i32 %1, ptr %4, align 4, !tbaa !10
  %5 = load ptr, ptr %3, align 8
  %6 = getelementptr inbounds nuw %class.app, ptr %5, i32 0, i32 4
  %7 = load i32, ptr %4, align 4, !tbaa !10
  %8 = zext i32 %7 to i64
  %9 = getelementptr inbounds nuw [0 x ptr], ptr %6, i64 0, i64 %8
  %10 = load ptr, ptr %9, align 8, !tbaa !15
  ret ptr %10
}

; Function Attrs: mustprogress nounwind uwtable
define linkonce_odr hidden noundef i32 @_ZNK3app12get_num_argsEv(ptr noundef nonnull align 8 dereferenceable(32) %0) #6 comdat align 2 {
  %2 = alloca ptr, align 8
  store ptr %0, ptr %2, align 8, !tbaa !17
  %3 = load ptr, ptr %2, align 8
  %4 = getelementptr inbounds nuw %class.app, ptr %3, i32 0, i32 2
  %5 = load i32, ptr %4, align 8, !tbaa !61
  ret i32 %5
}

; Function Attrs: inlinehint mustprogress nounwind uwtable
define linkonce_odr hidden noundef ptr @_Z6to_appPK3ast(ptr noundef %0) #8 comdat {
  %2 = alloca ptr, align 8
  store ptr %0, ptr %2, align 8, !tbaa !41
  %3 = load ptr, ptr %2, align 8, !tbaa !41
  ret ptr %3
}

; Function Attrs: mustprogress uwtable
define linkonce_odr hidden noundef zeroext i1 @_ZNK11ast_manager6is_notEPK4expr(ptr noundef nonnull align 8 dereferenceable(976) %0, ptr noundef %1) #4 comdat align 2 {
  %3 = alloca ptr, align 8
  %4 = alloca ptr, align 8
  store ptr %0, ptr %3, align 8, !tbaa !3
  store ptr %1, ptr %4, align 8, !tbaa !15
  %5 = load ptr, ptr %4, align 8, !tbaa !15
  %6 = call noundef zeroext i1 @_Z9is_app_ofPK4exprii(ptr noundef %5, i32 noundef 0, i32 noundef 8)
  ret i1 %6
}

; Function Attrs: mustprogress uwtable
define linkonce_odr hidden void @_ZN7obj_refI4expr11ast_managerE7inc_refEv(ptr noundef nonnull align 8 dereferenceable(16) %0) #4 comdat align 2 {
  %2 = alloca ptr, align 8
  store ptr %0, ptr %2, align 8, !tbaa !133
  %3 = load ptr, ptr %2, align 8
  %4 = getelementptr inbounds nuw %class.obj_ref, ptr %3, i32 0, i32 0
  %5 = load ptr, ptr %4, align 8, !tbaa !137
  %6 = icmp ne ptr %5, null
  br i1 %6, label %7, label %12

7:                                                ; preds = %1
  %8 = getelementptr inbounds nuw %class.obj_ref, ptr %3, i32 0, i32 1
  %9 = load ptr, ptr %8, align 8, !tbaa !135
  %10 = getelementptr inbounds nuw %class.obj_ref, ptr %3, i32 0, i32 0
  %11 = load ptr, ptr %10, align 8, !tbaa !137
  call void @_ZN11ast_manager7inc_refEP3ast(ptr noundef nonnull align 8 dereferenceable(976) %9, ptr noundef %11)
  br label %12

12:                                               ; preds = %7, %1
  ret void
}

; Function Attrs: mustprogress uwtable
define linkonce_odr hidden noundef ptr @_ZN11ast_manager6mk_notEP4expr(ptr noundef nonnull align 8 dereferenceable(976) %0, ptr noundef %1) #4 comdat align 2 {
  %3 = alloca ptr, align 8
  %4 = alloca ptr, align 8
  store ptr %0, ptr %3, align 8, !tbaa !3
  store ptr %1, ptr %4, align 8, !tbaa !15
  %5 = load ptr, ptr %3, align 8
  %6 = load ptr, ptr %4, align 8, !tbaa !15
  %7 = call noundef ptr @_ZN11ast_manager6mk_appEiiP4expr(ptr noundef nonnull align 8 dereferenceable(976) %5, i32 noundef 0, i32 noundef 8, ptr noundef %6)
  ret ptr %7
}

; Function Attrs: mustprogress nounwind uwtable
define linkonce_odr hidden noundef ptr @_ZNK11ast_manager7mk_trueEv(ptr noundef nonnull align 8 dereferenceable(976) %0) #6 comdat align 2 {
  %2 = alloca ptr, align 8
  store ptr %0, ptr %2, align 8, !tbaa !3
  %3 = load ptr, ptr %2, align 8
  %4 = getelementptr inbounds nuw %class.ast_manager, ptr %3, i32 0, i32 15
  %5 = load ptr, ptr %4, align 8, !tbaa !66
  ret ptr %5
}

; Function Attrs: mustprogress nounwind uwtable
define linkonce_odr hidden noundef zeroext i1 @_ZNK11ast_manager8is_falseEPK4expr(ptr noundef nonnull align 8 dereferenceable(976) %0, ptr noundef %1) #6 comdat align 2 {
  %3 = alloca ptr, align 8
  %4 = alloca ptr, align 8
  store ptr %0, ptr %3, align 8, !tbaa !3
  store ptr %1, ptr %4, align 8, !tbaa !15
  %5 = load ptr, ptr %3, align 8
  %6 = load ptr, ptr %4, align 8, !tbaa !15
  %7 = getelementptr inbounds nuw %class.ast_manager, ptr %5, i32 0, i32 16
  %8 = load ptr, ptr %7, align 8, !tbaa !127
  %9 = icmp eq ptr %6, %8
  ret i1 %9
}

; Function Attrs: mustprogress nounwind uwtable
define linkonce_odr hidden noundef ptr @_ZNK11ast_manager8mk_falseEv(ptr noundef nonnull align 8 dereferenceable(976) %0) #6 comdat align 2 {
  %2 = alloca ptr, align 8
  store ptr %0, ptr %2, align 8, !tbaa !3
  %3 = load ptr, ptr %2, align 8
  %4 = getelementptr inbounds nuw %class.ast_manager, ptr %3, i32 0, i32 16
  %5 = load ptr, ptr %4, align 8, !tbaa !127
  ret ptr %5
}

; Function Attrs: mustprogress nounwind uwtable
define linkonce_odr hidden noundef zeroext i1 @_ZNK11ast_manager7is_trueEPK4expr(ptr noundef nonnull align 8 dereferenceable(976) %0, ptr noundef %1) #6 comdat align 2 {
  %3 = alloca ptr, align 8
  %4 = alloca ptr, align 8
  store ptr %0, ptr %3, align 8, !tbaa !3
  store ptr %1, ptr %4, align 8, !tbaa !15
  %5 = load ptr, ptr %3, align 8
  %6 = load ptr, ptr %4, align 8, !tbaa !15
  %7 = getelementptr inbounds nuw %class.ast_manager, ptr %5, i32 0, i32 15
  %8 = load ptr, ptr %7, align 8, !tbaa !66
  %9 = icmp eq ptr %6, %8
  ret i1 %9
}

; Function Attrs: mustprogress uwtable
define linkonce_odr hidden noundef zeroext i1 @_ZNK11ast_manager6is_notEPK4exprRPS0_(ptr noundef nonnull align 8 dereferenceable(976) %0, ptr noundef %1, ptr noundef nonnull align 8 dereferenceable(8) %2) #4 comdat align 2 {
  %4 = alloca i1, align 1
  %5 = alloca ptr, align 8
  %6 = alloca ptr, align 8
  %7 = alloca ptr, align 8
  store ptr %0, ptr %5, align 8, !tbaa !3
  store ptr %1, ptr %6, align 8, !tbaa !15
  store ptr %2, ptr %7, align 8, !tbaa !12
  %8 = load ptr, ptr %5, align 8
  %9 = load ptr, ptr %6, align 8, !tbaa !15
  %10 = call noundef zeroext i1 @_ZNK11ast_manager6is_notEPK4expr(ptr noundef nonnull align 8 dereferenceable(976) %8, ptr noundef %9)
  br i1 %10, label %11, label %21

11:                                               ; preds = %3
  %12 = load ptr, ptr %6, align 8, !tbaa !15
  %13 = call noundef ptr @_Z6to_appPK3ast(ptr noundef %12)
  %14 = call noundef i32 @_ZNK3app12get_num_argsEv(ptr noundef nonnull align 8 dereferenceable(32) %13)
  %15 = icmp eq i32 %14, 1
  br i1 %15, label %16, label %21

16:                                               ; preds = %11
  %17 = load ptr, ptr %6, align 8, !tbaa !15
  %18 = call noundef ptr @_Z6to_appPK3ast(ptr noundef %17)
  %19 = call noundef ptr @_ZNK3app7get_argEj(ptr noundef nonnull align 8 dereferenceable(32) %18, i32 noundef 0)
  %20 = load ptr, ptr %7, align 8, !tbaa !12
  store ptr %19, ptr %20, align 8, !tbaa !15
  store i1 true, ptr %4, align 1
  br label %22

21:                                               ; preds = %11, %3
  store i1 false, ptr %4, align 1
  br label %22

22:                                               ; preds = %21, %16
  %23 = load i1, ptr %4, align 1
  ret i1 %23
}

; Function Attrs: mustprogress uwtable
define linkonce_odr hidden void @_ZN7obj_refI4expr11ast_managerEC2EPS0_RS1_(ptr noundef nonnull align 8 dereferenceable(16) %0, ptr noundef %1, ptr noundef nonnull align 8 dereferenceable(976) %2) unnamed_addr #4 comdat align 2 {
  %4 = alloca ptr, align 8
  %5 = alloca ptr, align 8
  %6 = alloca ptr, align 8
  store ptr %0, ptr %4, align 8, !tbaa !133
  store ptr %1, ptr %5, align 8, !tbaa !15
  store ptr %2, ptr %6, align 8, !tbaa !3
  %7 = load ptr, ptr %4, align 8
  %8 = getelementptr inbounds nuw %class.obj_ref, ptr %7, i32 0, i32 0
  %9 = load ptr, ptr %5, align 8, !tbaa !15
  store ptr %9, ptr %8, align 8, !tbaa !137
  %10 = getelementptr inbounds nuw %class.obj_ref, ptr %7, i32 0, i32 1
  %11 = load ptr, ptr %6, align 8, !tbaa !3
  store ptr %11, ptr %10, align 8, !tbaa !3
  call void @_ZN7obj_refI4expr11ast_managerE7inc_refEv(ptr noundef nonnull align 8 dereferenceable(16) %7)
  ret void
}

; Function Attrs: mustprogress uwtable
define hidden noundef ptr @_Z6mk_notR11ast_managerP4expr(ptr noundef nonnull align 8 dereferenceable(976) %0, ptr noundef %1) #4 {
  %3 = alloca ptr, align 8
  %4 = alloca ptr, align 8
  %5 = alloca ptr, align 8
  %6 = alloca ptr, align 8
  %7 = alloca i32, align 4
  store ptr %0, ptr %4, align 8, !tbaa !3
  store ptr %1, ptr %5, align 8, !tbaa !15
  call void @llvm.lifetime.start.p0(i64 8, ptr %6) #3
  %8 = load ptr, ptr %4, align 8, !tbaa !3
  %9 = load ptr, ptr %5, align 8, !tbaa !15
  %10 = call noundef zeroext i1 @_ZNK11ast_manager6is_notEPK4exprRPS0_(ptr noundef nonnull align 8 dereferenceable(976) %8, ptr noundef %9, ptr noundef nonnull align 8 dereferenceable(8) %6)
  br i1 %10, label %11, label %13

11:                                               ; preds = %2
  %12 = load ptr, ptr %6, align 8, !tbaa !15
  store ptr %12, ptr %3, align 8
  store i32 1, ptr %7, align 4
  br label %31

13:                                               ; preds = %2
  %14 = load ptr, ptr %4, align 8, !tbaa !3
  %15 = load ptr, ptr %5, align 8, !tbaa !15
  %16 = call noundef zeroext i1 @_ZNK11ast_manager7is_trueEPK4expr(ptr noundef nonnull align 8 dereferenceable(976) %14, ptr noundef %15)
  br i1 %16, label %17, label %20

17:                                               ; preds = %13
  %18 = load ptr, ptr %4, align 8, !tbaa !3
  %19 = call noundef ptr @_ZNK11ast_manager8mk_falseEv(ptr noundef nonnull align 8 dereferenceable(976) %18)
  store ptr %19, ptr %3, align 8
  store i32 1, ptr %7, align 4
  br label %31

20:                                               ; preds = %13
  %21 = load ptr, ptr %4, align 8, !tbaa !3
  %22 = load ptr, ptr %5, align 8, !tbaa !15
  %23 = call noundef zeroext i1 @_ZNK11ast_manager8is_falseEPK4expr(ptr noundef nonnull align 8 dereferenceable(976) %21, ptr noundef %22)
  br i1 %23, label %24, label %27

24:                                               ; preds = %20
  %25 = load ptr, ptr %4, align 8, !tbaa !3
  %26 = call noundef ptr @_ZNK11ast_manager7mk_trueEv(ptr noundef nonnull align 8 dereferenceable(976) %25)
  store ptr %26, ptr %3, align 8
  store i32 1, ptr %7, align 4
  br label %31

27:                                               ; preds = %20
  %28 = load ptr, ptr %4, align 8, !tbaa !3
  %29 = load ptr, ptr %5, align 8, !tbaa !15
  %30 = call noundef ptr @_ZN11ast_manager6mk_notEP4expr(ptr noundef nonnull align 8 dereferenceable(976) %28, ptr noundef %29)
  store ptr %30, ptr %3, align 8
  store i32 1, ptr %7, align 4
  br label %31

31:                                               ; preds = %27, %24, %17, %11
  call void @llvm.lifetime.end.p0(i64 8, ptr %6) #3
  %32 = load ptr, ptr %3, align 8
  ret ptr %32
}

; Function Attrs: mustprogress nounwind uwtable
define linkonce_odr hidden noundef ptr @_ZNK7obj_refI4expr11ast_managerEcvPS0_Ev(ptr noundef nonnull align 8 dereferenceable(16) %0) #6 comdat align 2 {
  %2 = alloca ptr, align 8
  store ptr %0, ptr %2, align 8, !tbaa !133
  %3 = load ptr, ptr %2, align 8
  %4 = getelementptr inbounds nuw %class.obj_ref, ptr %3, i32 0, i32 0
  %5 = load ptr, ptr %4, align 8, !tbaa !137
  ret ptr %5
}

; Function Attrs: mustprogress nounwind uwtable
define linkonce_odr hidden noundef nonnull align 8 dereferenceable(976) ptr @_ZNK7obj_refI4expr11ast_managerE1mEv(ptr noundef nonnull align 8 dereferenceable(16) %0) #6 comdat align 2 {
  %2 = alloca ptr, align 8
  store ptr %0, ptr %2, align 8, !tbaa !133
  %3 = load ptr, ptr %2, align 8
  %4 = getelementptr inbounds nuw %class.obj_ref, ptr %3, i32 0, i32 1
  %5 = load ptr, ptr %4, align 8, !tbaa !135
  ret ptr %5
}

; Function Attrs: mustprogress uwtable
define hidden void @_Z6mk_notRK7obj_refI4expr11ast_managerE(ptr dead_on_unwind noalias writable sret(%class.obj_ref) align 8 %0, ptr noundef nonnull align 8 dereferenceable(16) %1) #4 {
  %3 = alloca ptr, align 8
  %4 = alloca ptr, align 8
  store ptr %0, ptr %3, align 8
  store ptr %1, ptr %4, align 8, !tbaa !133
  %5 = load ptr, ptr %4, align 8, !tbaa !133
  %6 = call noundef nonnull align 8 dereferenceable(976) ptr @_ZNK7obj_refI4expr11ast_managerE1mEv(ptr noundef nonnull align 8 dereferenceable(16) %5)
  %7 = load ptr, ptr %4, align 8, !tbaa !133
  %8 = call noundef ptr @_ZNK7obj_refI4expr11ast_managerEcvPS0_Ev(ptr noundef nonnull align 8 dereferenceable(16) %7)
  %9 = call noundef ptr @_Z6mk_notR11ast_managerP4expr(ptr noundef nonnull align 8 dereferenceable(976) %6, ptr noundef %8)
  %10 = load ptr, ptr %4, align 8, !tbaa !133
  %11 = call noundef nonnull align 8 dereferenceable(976) ptr @_ZNK7obj_refI4expr11ast_managerE1mEv(ptr noundef nonnull align 8 dereferenceable(16) %10)
  call void @_ZN7obj_refI4expr11ast_managerEC2EPS0_RS1_(ptr noundef nonnull align 8 dereferenceable(16) %0, ptr noundef %9, ptr noundef nonnull align 8 dereferenceable(976) %11)
  ret void
}