; Function Attrs: mustprogress uwtable
define hidden void @_Z6mk_notRK7obj_refI4expr11ast_managerE(ptr dead_on_unwind noalias writable writeonly sret(%class.obj_ref) align 8 captures(none) initializes((0, 16)) %0, ptr noundef nonnull readonly align 8 captures(none) dereferenceable(16) %1) local_unnamed_addr #3 {
  %3 = getelementptr inbounds nuw i8, ptr %1, i64 8
  %4 = load ptr, ptr %3, align 8, !tbaa !123
  %5 = load ptr, ptr %1, align 8, !tbaa !125
  %6 = getelementptr inbounds nuw i8, ptr %5, i64 4
  %7 = load i32, ptr %6, align 4
  %8 = and i32 %7, 65535
  %9 = icmp eq i32 %8, 0
  br i1 %9, label %10, label %28

10:                                               ; preds = %2
  %11 = getelementptr inbounds nuw i8, ptr %5, i64 16
  %12 = load ptr, ptr %11, align 8, !tbaa !52
  %13 = getelementptr inbounds nuw i8, ptr %12, i64 24
  %14 = load ptr, ptr %13, align 8, !tbaa !53
  %.not.i.i.i.i.i.i = icmp eq ptr %14, null
  br i1 %.not.i.i.i.i.i.i, label %28, label %_ZNK11ast_manager6is_notEPK4expr.exit.i.i

_ZNK11ast_manager6is_notEPK4expr.exit.i.i:        ; preds = %10
  %15 = load i32, ptr %14, align 8, !tbaa !56
  %16 = icmp eq i32 %15, 0
  %17 = getelementptr inbounds nuw i8, ptr %14, i64 4
  %18 = load i32, ptr %17, align 4
  %19 = icmp eq i32 %18, 8
  %20 = select i1 %16, i1 %19, i1 false
  br i1 %20, label %21, label %28

21:                                               ; preds = %_ZNK11ast_manager6is_notEPK4expr.exit.i.i
  %22 = getelementptr inbounds nuw i8, ptr %5, i64 24
  %23 = load i32, ptr %22, align 8, !tbaa !19
  %24 = icmp eq i32 %23, 1
  br i1 %24, label %25, label %28

25:                                               ; preds = %21
  %26 = getelementptr inbounds nuw i8, ptr %5, i64 32
  %27 = load ptr, ptr %26, align 8, !tbaa !3
  br label %_Z6mk_notR11ast_managerP4expr.exit

28:                                               ; preds = %21, %_ZNK11ast_manager6is_notEPK4expr.exit.i.i, %10, %2
  %29 = getelementptr inbounds nuw i8, ptr %4, i64 856
  %30 = load ptr, ptr %29, align 8, !tbaa !60
  %31 = icmp eq ptr %5, %30
  %32 = getelementptr inbounds nuw i8, ptr %4, i64 864
  %33 = load ptr, ptr %32, align 8, !tbaa !121
  br i1 %31, label %_Z6mk_notR11ast_managerP4expr.exit, label %34

34:                                               ; preds = %28
  %35 = icmp eq ptr %5, %33
  br i1 %35, label %_Z6mk_notR11ast_managerP4expr.exit, label %36

36:                                               ; preds = %34
  %37 = tail call noundef ptr @_ZN11ast_manager6mk_appEiiP4expr(ptr noundef nonnull align 8 dereferenceable(976) %4, i32 noundef 0, i32 noundef 8, ptr noundef nonnull %5)
  %.pre = load ptr, ptr %3, align 8, !tbaa !123
  br label %_Z6mk_notR11ast_managerP4expr.exit

_Z6mk_notR11ast_managerP4expr.exit:               ; preds = %25, %28, %34, %36
  %38 = phi ptr [ %4, %25 ], [ %.pre, %36 ], [ %4, %34 ], [ %4, %28 ]
  %.0.i = phi ptr [ %27, %25 ], [ %37, %36 ], [ %30, %34 ], [ %33, %28 ]
  store ptr %.0.i, ptr %0, align 8, !tbaa !125
  %39 = getelementptr inbounds nuw i8, ptr %0, i64 8
  store ptr %38, ptr %39, align 8, !tbaa !126
  %.not.i.i = icmp eq ptr %.0.i, null
  br i1 %.not.i.i, label %_ZN7obj_refI4expr11ast_managerEC2EPS0_RS1_.exit, label %_ZN11ast_manager7inc_refEP3ast.exit.i.i

_ZN11ast_manager7inc_refEP3ast.exit.i.i:          ; preds = %_Z6mk_notR11ast_managerP4expr.exit
  %40 = getelementptr inbounds nuw i8, ptr %.0.i, i64 8
  %41 = load i32, ptr %40, align 4, !tbaa !127
  %42 = add i32 %41, 1
  store i32 %42, ptr %40, align 4, !tbaa !127
  br label %_ZN7obj_refI4expr11ast_managerEC2EPS0_RS1_.exit

_ZN7obj_refI4expr11ast_managerEC2EPS0_RS1_.exit:  ; preds = %_Z6mk_notR11ast_managerP4expr.exit, %_ZN11ast_manager7inc_refEP3ast.exit.i.i
  ret void
}